target datalayout = "e-m:e-p270:32:32-p271:32:32-p272:64:64-i64:64-i128:128-f80:128-n8:16:32:64-S128"
target triple = "x86_64-pc-linux-gnu"

%struct._wmem_array_t = type { ptr, ptr, i64, i32, i32, i8 }

; Function Attrs: null_pointer_is_valid sspstrong uwtable
define ptr @wmem_array_finalize(ptr noundef %0) #0 {
  %2 = alloca ptr, align 8
  %3 = alloca ptr, align 8
  %4 = alloca i64, align 8
  %5 = alloca ptr, align 8
  store ptr %0, ptr %3, align 8
  %6 = load ptr, ptr %3, align 8
  %7 = icmp eq ptr %6, null
  br i1 %7, label %8, label %9

8:                                                ; preds = %1
  store ptr null, ptr %2, align 8
  br label %48

9:                                                ; preds = %1
  call void @llvm.lifetime.start.p0(i64 8, ptr %4) #11
  %10 = load ptr, ptr %3, align 8
  %11 = getelementptr inbounds nuw %struct._wmem_array_t, ptr %10, i32 0, i32 5
  %12 = load i8, ptr %11, align 8, !range !8, !noundef !9
  %13 = trunc i8 %12 to i1
  br i1 %13, label %14, label %24

14:                                               ; preds = %9
  %15 = load ptr, ptr %3, align 8
  %16 = getelementptr inbounds nuw %struct._wmem_array_t, ptr %15, i32 0, i32 3
  %17 = load i32, ptr %16, align 8
  %18 = add i32 %17, 1
  %19 = zext i32 %18 to i64
  %20 = load ptr, ptr %3, align 8
  %21 = getelementptr inbounds nuw %struct._wmem_array_t, ptr %20, i32 0, i32 2
  %22 = load i64, ptr %21, align 8
  %23 = mul i64 %19, %22
  br label %33

24:                                               ; preds = %9
  %25 = load ptr, ptr %3, align 8
  %26 = getelementptr inbounds nuw %struct._wmem_array_t, ptr %25, i32 0, i32 3
  %27 = load i32, ptr %26, align 8
  %28 = zext i32 %27 to i64
  %29 = load ptr, ptr %3, align 8
  %30 = getelementptr inbounds nuw %struct._wmem_array_t, ptr %29, i32 0, i32 2
  %31 = load i64, ptr %30, align 8
  %32 = mul i64 %28, %31
  br label %33

33:                                               ; preds = %24, %14
  %34 = phi i64 [ %23, %14 ], [ %32, %24 ]
  store i64 %34, ptr %4, align 8
  call void @llvm.lifetime.start.p0(i64 8, ptr %5) #11
  %35 = load ptr, ptr %3, align 8
  %36 = getelementptr inbounds nuw %struct._wmem_array_t, ptr %35, i32 0, i32 0
  %37 = load ptr, ptr %36, align 8
  %38 = load ptr, ptr %3, align 8
  %39 = getelementptr inbounds nuw %struct._wmem_array_t, ptr %38, i32 0, i32 1
  %40 = load ptr, ptr %39, align 8
  %41 = load i64, ptr %4, align 8
  %42 = call ptr @wmem_realloc(ptr noundef %37, ptr noundef %40, i64 noundef %41) #13
  store ptr %42, ptr %5, align 8
  %43 = load ptr, ptr %3, align 8
  %44 = getelementptr inbounds nuw %struct._wmem_array_t, ptr %43, i32 0, i32 0
  %45 = load ptr, ptr %44, align 8
  %46 = load ptr, ptr %3, align 8
  call void @wmem_free(ptr noundef %45, ptr noundef %46)
  %47 = load ptr, ptr %5, align 8
  store ptr %47, ptr %2, align 8
  call void @llvm.lifetime.end.p0(i64 8, ptr %5) #11
  call void @llvm.lifetime.end.p0(i64 8, ptr %4) #11
  br label %48

48:                                               ; preds = %33, %8
  %49 = load ptr, ptr %2, align 8
  ret ptr %49
}