; Function Attrs: null_pointer_is_valid sspstrong uwtable
define ptr @wmem_array_finalize(ptr noundef %0) local_unnamed_addr #0 {
  %2 = icmp eq ptr %0, null
  br i1 %2, label %18, label %3

3:                                                ; preds = %1
  %4 = getelementptr inbounds nuw i8, ptr %0, i64 32
  %5 = load i8, ptr %4, align 8, !range !8, !noundef !9
  %6 = zext nneg i8 %5 to i32
  %7 = getelementptr inbounds nuw i8, ptr %0, i64 24
  %8 = load i32, ptr %7, align 8
  %.sink = add i32 %8, %6
  %9 = zext i32 %.sink to i64
  %10 = getelementptr inbounds nuw i8, ptr %0, i64 16
  %11 = load i64, ptr %10, align 8
  %12 = mul i64 %11, %9
  %13 = load ptr, ptr %0, align 8
  %14 = getelementptr inbounds nuw i8, ptr %0, i64 8
  %15 = load ptr, ptr %14, align 8
  %16 = tail call ptr @wmem_realloc(ptr noundef %13, ptr noundef %15, i64 noundef %12) #13
  %17 = load ptr, ptr %0, align 8
  tail call void @wmem_free(ptr noundef %17, ptr noundef nonnull %0)
  br label %18

18:                                               ; preds = %1, %3
  %.0 = phi ptr [ %16, %3 ], [ null, %1 ]
  ret ptr %.0
}